target datalayout = "e-m:e-p270:32:32-p271:32:32-p272:64:64-i64:64-i128:128-f80:128-n8:16:32:64-S128"
target triple = "x86_64-pc-linux-gnu"

; Function Attrs: nounwind uwtable
define internal i64 @get_raw_size(i32 noundef %0, i32 noundef %1, i32 noundef %2) #0 {
  %4 = alloca i64, align 8
  %5 = alloca i32, align 4
  %6 = alloca i32, align 4
  %7 = alloca i32, align 4
  store i32 %0, ptr %5, align 4, !tbaa !26
  store i32 %1, ptr %6, align 4, !tbaa !26
  store i32 %2, ptr %7, align 4, !tbaa !26
  %8 = load i32, ptr %5, align 4, !tbaa !26
  switch i32 %8, label %55 [
    i32 39, label %9
    i32 37, label %9
    i32 2, label %15
    i32 3, label %15
    i32 5, label %15
    i32 0, label %21
    i32 6, label %38
  ]

9:                                                ; preds = %3, %3
  %10 = load i32, ptr %6, align 4, !tbaa !26
  %11 = load i32, ptr %7, align 4, !tbaa !26
  %12 = mul nsw i32 %10, %11
  %13 = sext i32 %12 to i64
  %14 = mul nsw i64 %13, 2
  store i64 %14, ptr %4, align 8
  br label %56

15:                                               ; preds = %3, %3, %3
  %16 = load i32, ptr %6, align 4, !tbaa !26
  %17 = load i32, ptr %7, align 4, !tbaa !26
  %18 = mul nsw i32 %16, %17
  %19 = sext i32 %18 to i64
  %20 = mul nsw i64 %19, 3
  store i64 %20, ptr %4, align 8
  br label %56

21:                                               ; preds = %3
  %22 = load i32, ptr %6, align 4, !tbaa !26
  %23 = load i32, ptr %7, align 4, !tbaa !26
  %24 = mul nsw i32 %22, %23
  %25 = sext i32 %24 to i64
  %26 = load i32, ptr %6, align 4, !tbaa !26
  %27 = add nsw i32 %26, 2
  %28 = sub nsw i32 %27, 1
  %29 = ashr i32 %28, 1
  %30 = mul nsw i32 2, %29
  %31 = load i32, ptr %7, align 4, !tbaa !26
  %32 = add nsw i32 %31, 2
  %33 = sub nsw i32 %32, 1
  %34 = ashr i32 %33, 1
  %35 = mul nsw i32 %30, %34
  %36 = sext i32 %35 to i64
  %37 = add nsw i64 %25, %36
  store i64 %37, ptr %4, align 8
  br label %56

38:                                               ; preds = %3
  %39 = load i32, ptr %6, align 4, !tbaa !26
  %40 = load i32, ptr %7, align 4, !tbaa !26
  %41 = mul nsw i32 %39, %40
  %42 = sext i32 %41 to i64
  %43 = load i32, ptr %6, align 4, !tbaa !26
  %44 = add nsw i32 %43, 4
  %45 = sub nsw i32 %44, 1
  %46 = ashr i32 %45, 2
  %47 = mul nsw i32 2, %46
  %48 = load i32, ptr %7, align 4, !tbaa !26
  %49 = add nsw i32 %48, 4
  %50 = sub nsw i32 %49, 1
  %51 = ashr i32 %50, 2
  %52 = mul nsw i32 %47, %51
  %53 = sext i32 %52 to i64
  %54 = add nsw i64 %42, %53
  store i64 %54, ptr %4, align 8
  br label %56

55:                                               ; preds = %3
  store i64 0, ptr %4, align 8
  br label %56

56:                                               ; preds = %55, %38, %21, %15, %9
  %57 = load i64, ptr %4, align 8
  ret i64 %57
}