; Function Attrs: mustprogress nofree norecurse nosync nounwind willreturn memory(none) uwtable
define internal fastcc range(i64 -6442450944, 6442450942) i64 @get_raw_size(i32 noundef range(i32 0, 40) %0, i32 noundef %1, i32 noundef %2) unnamed_addr #3 {
  switch i32 %0, label %33 [
    i32 39, label %4
    i32 37, label %4
    i32 2, label %8
    i32 3, label %8
    i32 5, label %8
    i32 0, label %12
    i32 6, label %22
  ]

4:                                                ; preds = %3, %3
  %5 = mul nsw i32 %2, %1
  %6 = sext i32 %5 to i64
  %7 = shl nsw i64 %6, 1
  br label %33

8:                                                ; preds = %3, %3, %3
  %9 = mul nsw i32 %2, %1
  %10 = sext i32 %9 to i64
  %11 = mul nsw i64 %10, 3
  br label %33

12:                                               ; preds = %3
  %13 = mul nsw i32 %2, %1
  %14 = sext i32 %13 to i64
  %15 = add nsw i32 %1, 1
  %16 = and i32 %15, -2
  %17 = add nsw i32 %2, 1
  %18 = ashr i32 %17, 1
  %19 = mul nsw i32 %18, %16
  %20 = sext i32 %19 to i64
  %21 = add nsw i64 %20, %14
  br label %33

22:                                               ; preds = %3
  %23 = mul nsw i32 %2, %1
  %24 = sext i32 %23 to i64
  %25 = add nsw i32 %1, 3
  %26 = ashr i32 %25, 1
  %27 = and i32 %26, -2
  %28 = add nsw i32 %2, 3
  %29 = ashr i32 %28, 2
  %30 = mul nsw i32 %27, %29
  %31 = sext i32 %30 to i64
  %32 = add nsw i64 %31, %24
  br label %33

33:                                               ; preds = %3, %22, %12, %8, %4
  %.0 = phi i64 [ %32, %22 ], [ %21, %12 ], [ %11, %8 ], [ %7, %4 ], [ 0, %3 ]
  ret i64 %.0
}